; Function Attrs: mustprogress uwtable
define hidden void @_ZN4nori6indentERKNSt7__cxx1112basic_stringIcSt11char_traitsIcESaIcEEEi(ptr dead_on_unwind noalias writable sret(%"class.std::__cxx11::basic_string") align 8 %0, ptr noundef nonnull align 8 dereferenceable(32) %1, i32 noundef %2) local_unnamed_addr #3 personality ptr @__gxx_personality_v0 {
  %4 = alloca %"class.std::__cxx11::basic_istringstream", align 8
  %5 = alloca %"class.std::__cxx11::basic_ostringstream", align 8
  %6 = alloca %"class.std::__cxx11::basic_string", align 8
  %7 = alloca %"class.std::allocator", align 1
  %8 = alloca %"class.std::__cxx11::basic_string", align 8
  call void @_ZNSt7__cxx1119basic_istringstreamIcSt11char_traitsIcESaIcEEC1ERKNS_12basic_stringIcS2_S3_EESt13_Ios_Openmode(ptr noundef nonnull align 8 dereferenceable(120) %4, ptr noundef nonnull align 8 dereferenceable(32) %1, i32 noundef 8)
  invoke void @_ZNSt7__cxx1119basic_ostringstreamIcSt11char_traitsIcESaIcEEC1Ev(ptr noundef nonnull align 8 dereferenceable(112) %5)
          to label %9 unwind label %24

9:                                                ; preds = %3
  %10 = sext i32 %2 to i64
  call void @_ZNSaIcEC1Ev(ptr noundef nonnull align 1 dereferenceable(1) %7) #26
  %11 = invoke noundef ptr @_ZNSt7__cxx1112basic_stringIcSt11char_traitsIcESaIcEE13_M_local_dataEv(ptr noundef nonnull align 8 dereferenceable(32) %6)
          to label %.noexc unwind label %26

.noexc:                                           ; preds = %9
  invoke void @_ZNSt7__cxx1112basic_stringIcSt11char_traitsIcESaIcEE12_Alloc_hiderC1EPcRKS3_(ptr noundef nonnull align 8 dereferenceable(8) %6, ptr noundef %11, ptr noundef nonnull align 1 dereferenceable(1) %7)
          to label %.noexc11 unwind label %26

.noexc11:                                         ; preds = %.noexc
  invoke void @_ZNSt7__cxx1112basic_stringIcSt11char_traitsIcESaIcEE12_M_constructEmc(ptr noundef nonnull align 8 dereferenceable(32) %6, i64 noundef %10, i8 noundef signext 32)
          to label %_ZNSt7__cxx1112basic_stringIcSt11char_traitsIcESaIcEEC2IS3_EEmcRKS3_.exit unwind label %12

12:                                               ; preds = %.noexc11
  %13 = landingpad { ptr, i32 }
          cleanup
  call void @_ZNSaIcED2Ev(ptr noundef nonnull align 1 dereferenceable(1) %6) #26
  br label %.body

_ZNSt7__cxx1112basic_stringIcSt11char_traitsIcESaIcEEC2IS3_EEmcRKS3_.exit: ; preds = %.noexc11
  call void @_ZNSaIcED1Ev(ptr noundef nonnull align 1 dereferenceable(1) %7) #26
  call void @_ZNSt7__cxx1112basic_stringIcSt11char_traitsIcESaIcEEC1Ev(ptr noundef nonnull align 8 dereferenceable(32) %8) #26
  br label %14

14:                                               ; preds = %.backedge, %_ZNSt7__cxx1112basic_stringIcSt11char_traitsIcESaIcEEC2IS3_EEmcRKS3_.exit
  %.0 = phi i1 [ true, %_ZNSt7__cxx1112basic_stringIcSt11char_traitsIcESaIcEEC2IS3_EEmcRKS3_.exit ], [ false, %.backedge ]
  %15 = invoke noundef nonnull align 8 dereferenceable(16) ptr @_ZSt7getlineIcSt11char_traitsIcESaIcEERSt13basic_istreamIT_T0_ES7_RNSt7__cxx1112basic_stringIS4_S5_T1_EE(ptr noundef nonnull align 8 dereferenceable(16) %4, ptr noundef nonnull align 8 dereferenceable(32) %8)
          to label %16 unwind label %28

16:                                               ; preds = %14
  %17 = load ptr, ptr %15, align 8
  %18 = getelementptr i8, ptr %17, i64 -24
  %19 = load i64, ptr %18, align 8
  %20 = getelementptr inbounds i8, ptr %15, i64 %19
  %21 = invoke noundef zeroext i1 @_ZNKSt9basic_iosIcSt11char_traitsIcEEcvbEv(ptr noundef nonnull align 8 dereferenceable(264) %20)
          to label %22 unwind label %28

22:                                               ; preds = %16
  br i1 %21, label %30, label %23

23:                                               ; preds = %22
  call void @_ZNSt7__cxx1112basic_stringIcSt11char_traitsIcESaIcEED1Ev(ptr noundef nonnull align 8 dereferenceable(32) %8) #26
  invoke void @_ZNKSt7__cxx1119basic_ostringstreamIcSt11char_traitsIcESaIcEE3strEv(ptr dead_on_unwind writable sret(%"class.std::__cxx11::basic_string") align 8 %0, ptr noundef nonnull align 8 dereferenceable(112) %5)
          to label %44 unwind label %45

24:                                               ; preds = %3
  %25 = landingpad { ptr, i32 }
          cleanup
  br label %49

26:                                               ; preds = %.noexc, %9
  %27 = landingpad { ptr, i32 }
          cleanup
  br label %.body

.body:                                            ; preds = %12, %26
  %eh.lpad-body = phi { ptr, i32 } [ %27, %26 ], [ %13, %12 ]
  call void @_ZNSaIcED1Ev(ptr noundef nonnull align 1 dereferenceable(1) %7) #26
  br label %48

28:                                               ; preds = %42, %35, %33, %31, %16, %14
  %29 = landingpad { ptr, i32 }
          cleanup
  call void @_ZNSt7__cxx1112basic_stringIcSt11char_traitsIcESaIcEED1Ev(ptr noundef nonnull align 8 dereferenceable(32) %8) #26
  br label %47

30:                                               ; preds = %22
  br i1 %.0, label %33, label %31

31:                                               ; preds = %30
  %32 = invoke noundef nonnull align 8 dereferenceable(8) ptr @_ZStlsIcSt11char_traitsIcESaIcEERSt13basic_ostreamIT_T0_ES7_RKNSt7__cxx1112basic_stringIS4_S5_T1_EE(ptr noundef nonnull align 8 dereferenceable(8) %5, ptr noundef nonnull align 8 dereferenceable(32) %6)
          to label %33 unwind label %28

33:                                               ; preds = %31, %30
  %34 = invoke noundef nonnull align 8 dereferenceable(8) ptr @_ZStlsIcSt11char_traitsIcESaIcEERSt13basic_ostreamIT_T0_ES7_RKNSt7__cxx1112basic_stringIS4_S5_T1_EE(ptr noundef nonnull align 8 dereferenceable(8) %5, ptr noundef nonnull align 8 dereferenceable(32) %8)
          to label %35 unwind label %28

35:                                               ; preds = %33
  %36 = load ptr, ptr %4, align 8
  %37 = getelementptr i8, ptr %36, i64 -24
  %38 = load i64, ptr %37, align 8
  %39 = getelementptr inbounds i8, ptr %4, i64 %38
  %40 = invoke noundef zeroext i1 @_ZNKSt9basic_iosIcSt11char_traitsIcEE3eofEv(ptr noundef nonnull align 8 dereferenceable(264) %39)
          to label %41 unwind label %28

41:                                               ; preds = %35
  br i1 %40, label %.backedge, label %42

42:                                               ; preds = %41
  %43 = invoke noundef nonnull align 8 dereferenceable(8) ptr @_ZNSolsEPFRSoS_E(ptr noundef nonnull align 8 dereferenceable(8) %5, ptr noundef nonnull @_ZSt4endlIcSt11char_traitsIcEERSt13basic_ostreamIT_T0_ES6_)
          to label %.backedge unwind label %28

.backedge:                                        ; preds = %42, %41
  br label %14, !llvm.loop !5

44:                                               ; preds = %23
  call void @_ZNSt7__cxx1112basic_stringIcSt11char_traitsIcESaIcEED1Ev(ptr noundef nonnull align 8 dereferenceable(32) %6) #26
  call void @_ZNSt7__cxx1119basic_ostringstreamIcSt11char_traitsIcESaIcEED1Ev(ptr noundef nonnull align 8 dereferenceable(112) %5) #26
  call void @_ZNSt7__cxx1119basic_istringstreamIcSt11char_traitsIcESaIcEED1Ev(ptr noundef nonnull align 8 dereferenceable(120) %4) #26
  ret void

45:                                               ; preds = %23
  %46 = landingpad { ptr, i32 }
          cleanup
  br label %47

47:                                               ; preds = %45, %28
  %.pn = phi { ptr, i32 } [ %29, %28 ], [ %46, %45 ]
  call void @_ZNSt7__cxx1112basic_stringIcSt11char_traitsIcESaIcEED1Ev(ptr noundef nonnull align 8 dereferenceable(32) %6) #26
  br label %48

48:                                               ; preds = %47, %.body
  %.pn.pn = phi { ptr, i32 } [ %.pn, %47 ], [ %eh.lpad-body, %.body ]
  call void @_ZNSt7__cxx1119basic_ostringstreamIcSt11char_traitsIcESaIcEED1Ev(ptr noundef nonnull align 8 dereferenceable(112) %5) #26
  br label %49

49:                                               ; preds = %48, %24
  %.pn.pn.pn = phi { ptr, i32 } [ %.pn.pn, %48 ], [ %25, %24 ]
  call void @_ZNSt7__cxx1119basic_istringstreamIcSt11char_traitsIcESaIcEED1Ev(ptr noundef nonnull align 8 dereferenceable(120) %4) #26
  resume { ptr, i32 } %.pn.pn.pn
}